CCS PCM C Compiler, Version 3.184, 22094

               Filename: C:\Documents and Settings\micros\Escritorio\Practica 9\Ejercicio 3.LST

               ROM used: 1033 (13%)
                         Largest free fragment is 2048
               RAM used: 25 (14%) at main() level
                         43 (25%) worst case
               Stack:    3 worst case (1 in main + 2 for interrupts)

*
0000:  MOVLW  00
0001:  MOVWF  0A
0002:  GOTO   349
0003:  NOP
0004:  MOVWF  7F
0005:  SWAPF  03,W
0006:  CLRF   03
0007:  MOVWF  21
0008:  MOVF   0A,W
0009:  MOVWF  20
000A:  CLRF   0A
000B:  MOVF   04,W
000C:  MOVWF  22
000D:  MOVF   77,W
000E:  MOVWF  23
000F:  MOVF   78,W
0010:  MOVWF  24
0011:  MOVF   79,W
0012:  MOVWF  25
0013:  MOVF   7A,W
0014:  MOVWF  26
0015:  MOVF   7B,W
0016:  MOVWF  27
0017:  BCF    03.7
0018:  BCF    03.5
0019:  BTFSS  0B.5
001A:  GOTO   01D
001B:  BTFSC  0B.2
001C:  GOTO   030
001D:  MOVF   22,W
001E:  MOVWF  04
001F:  MOVF   23,W
0020:  MOVWF  77
0021:  MOVF   24,W
0022:  MOVWF  78
0023:  MOVF   25,W
0024:  MOVWF  79
0025:  MOVF   26,W
0026:  MOVWF  7A
0027:  MOVF   27,W
0028:  MOVWF  7B
0029:  MOVF   20,W
002A:  MOVWF  0A
002B:  SWAPF  21,W
002C:  MOVWF  03
002D:  SWAPF  7F,F
002E:  SWAPF  7F,W
002F:  RETFIE
0030:  BCF    0A.3
0031:  BCF    0A.4
0032:  GOTO   07D
....................  #include <16f877.h>  //Tipo de MicroControlador a utilizar 
....................  //////// Standard Header file for the PIC16F877 device ////////////////  
.................... #device PIC16F877  
.................... #list  
....................  
.................... #device ADC=10       //Resolución Conv A/D  
.................... #fuses HS,NOPROTECT,  
.................... #use delay(clock=20000000) //Frec. de Osc. 20Mhz  
0334:  MOVLW  2C
0335:  MOVWF  04
0336:  MOVF   00,W
0337:  BTFSC  03.2
0338:  GOTO   346
0339:  MOVLW  06
033A:  MOVWF  78
033B:  CLRF   77
033C:  DECFSZ 77,F
033D:  GOTO   33C
033E:  DECFSZ 78,F
033F:  GOTO   33B
0340:  MOVLW  7B
0341:  MOVWF  77
0342:  DECFSZ 77,F
0343:  GOTO   342
0344:  DECFSZ 00,F
0345:  GOTO   339
0346:  BCF    0A.3
0347:  BCF    0A.4
0348:  GOTO   406 (RETURN)
.................... //Configuración Puerto SERIAL  
.................... #use rs232(baud=9600, xmit=PIN_C6, rcv=PIN_C7)  
.................... #org 0x1F00, 0x1FFF  
....................   
.................... void loader16F877(void) {}  
*
1F00:  RETLW  00
....................   
.................... long var;  
.................... int16 contador=0;  
*
0356:  CLRF   2A
0357:  CLRF   2B
....................   
.................... #int_rtcc  
....................   
.................... clock_isr(){  
....................    contador++;  
*
007D:  INCF   2A,F
007E:  BTFSC  03.2
007F:  INCF   2B,F
....................    if(contador==2310){  
0080:  MOVF   2A,W
0081:  SUBLW  06
0082:  BTFSS  03.2
0083:  GOTO   097
0084:  MOVF   2B,W
0085:  SUBLW  09
0086:  BTFSS  03.2
0087:  GOTO   097
....................      printf("\nPONGANOS 10 POR FAVOR\n");  
0088:  CLRF   45
0089:  MOVF   45,W
008A:  CALL   033
008B:  INCF   45,F
008C:  MOVWF  77
008D:  MOVF   77,W
008E:  BTFSS  0C.4
008F:  GOTO   08E
0090:  MOVWF  19
0091:  MOVLW  17
0092:  SUBWF  45,W
0093:  BTFSS  03.2
0094:  GOTO   089
....................      contador=0;  
0095:  CLRF   2B
0096:  CLRF   2A
....................    }  
.................... }  
....................   
0097:  BCF    0B.2
0098:  BCF    0A.3
0099:  BCF    0A.4
009A:  GOTO   01D
.................... void main(){  
....................      setup_port_a(ALL_ANALOG);     //Configura PORTA como analógico  
*
0349:  CLRF   04
034A:  MOVLW  1F
034B:  ANDWF  03,F
034C:  MOVLW  06
034D:  BSF    03.5
034E:  MOVWF  1F
034F:  MOVLW  81
0350:  MOVWF  19
0351:  MOVLW  26
0352:  MOVWF  18
0353:  MOVLW  90
0354:  BCF    03.5
0355:  MOVWF  18
*
0358:  MOVLW  80
0359:  BSF    03.5
035A:  MOVWF  1F
....................      setup_adc(ADC_CLOCK_INTERNAL);//Relog interno de Conv. A/D  
035B:  BCF    03.5
035C:  MOVF   1F,W
035D:  ANDLW  38
035E:  IORLW  C1
035F:  MOVWF  1F
....................      set_adc_channel(0);           //Selección del Canal 0  
0360:  MOVLW  00
0361:  MOVWF  78
0362:  MOVF   1F,W
0363:  ANDLW  C7
0364:  IORWF  78,W
0365:  MOVWF  1F
....................      set_timer0(0);                //Inicia el timer0 en 00H  
0366:  CLRF   01
....................      setup_counters(RTCC_INTERNAL,RTCC_DIV_256);  
0367:  MOVLW  07
0368:  MOVWF  77
0369:  BTFSS  77.3
036A:  GOTO   373
036B:  MOVLW  07
036C:  CLRF   01
036D:  MOVLW  81
036E:  MOVWF  04
036F:  MOVF   00,W
0370:  ANDLW  C0
0371:  IORLW  0F
0372:  MOVWF  00
0373:  CLRWDT
0374:  MOVLW  81
0375:  MOVWF  04
0376:  MOVF   00,W
0377:  ANDLW  C0
0378:  IORWF  77,W
0379:  MOVWF  00
....................      enable_interrupts(INT_RTCC);//Habilita la interrupción TIMER0  
037A:  BSF    0B.5
....................      enable_interrupts(GLOBAL); //Habilita interrupciones generales  
037B:  MOVLW  C0
037C:  IORWF  0B,F
.................... 	   
....................      while(1){  
....................         delay_us(20);     //Retardo   
037D:  MOVLW  21
037E:  MOVWF  77
037F:  DECFSZ 77,F
0380:  GOTO   37F
....................         var=read_adc();   //Lee el resultado de la Conversión  
0381:  BSF    1F.2
0382:  BTFSC  1F.2
0383:  GOTO   382
0384:  BSF    03.5
0385:  MOVF   1E,W
0386:  BCF    03.5
0387:  MOVWF  28
0388:  MOVF   1E,W
0389:  MOVWF  29
....................         delay_us(20);     //Retardo  
038A:  MOVLW  21
038B:  MOVWF  77
038C:  DECFSZ 77,F
038D:  GOTO   38C
....................         //Imprime en la terminal el resultado de la Conv.  
....................         printf(" voltaje =%lu [dec], %LX [hex], %2f[v]\n\r ",var,var,(var*0.0196));   
038E:  MOVF   29,W
038F:  MOVWF  2D
0390:  MOVF   28,W
0391:  MOVWF  2C
0392:  GOTO   09B
0393:  MOVF   7A,W
0394:  MOVWF  2F
0395:  MOVF   79,W
0396:  MOVWF  2E
0397:  MOVF   78,W
0398:  MOVWF  2D
0399:  MOVF   77,W
039A:  MOVWF  2C
039B:  MOVLW  2E
039C:  MOVWF  33
039D:  MOVLW  90
039E:  MOVWF  32
039F:  MOVLW  20
03A0:  MOVWF  31
03A1:  MOVLW  79
03A2:  MOVWF  30
03A3:  GOTO   0BB
03A4:  MOVF   77,W
03A5:  MOVWF  2C
03A6:  MOVF   78,W
03A7:  MOVWF  2D
03A8:  MOVF   79,W
03A9:  MOVWF  2E
03AA:  MOVF   7A,W
03AB:  MOVWF  2F
03AC:  CLRF   30
03AD:  MOVF   30,W
03AE:  CALL   04F
03AF:  INCF   30,F
03B0:  MOVWF  77
03B1:  MOVF   77,W
03B2:  BTFSS  0C.4
03B3:  GOTO   3B2
03B4:  MOVWF  19
03B5:  MOVLW  0A
03B6:  SUBWF  30,W
03B7:  BTFSS  03.2
03B8:  GOTO   3AD
03B9:  MOVLW  10
03BA:  MOVWF  04
03BB:  MOVF   29,W
03BC:  MOVWF  32
03BD:  MOVF   28,W
03BE:  MOVWF  31
03BF:  GOTO   134
03C0:  MOVLW  0D
03C1:  MOVWF  31
03C2:  MOVF   31,W
03C3:  CALL   04F
03C4:  INCF   31,F
03C5:  MOVWF  77
03C6:  MOVF   77,W
03C7:  BTFSS  0C.4
03C8:  GOTO   3C7
03C9:  MOVWF  19
03CA:  MOVLW  15
03CB:  SUBWF  31,W
03CC:  BTFSS  03.2
03CD:  GOTO   3C2
03CE:  MOVF   29,W
03CF:  MOVWF  32
03D0:  MOVLW  37
03D1:  MOVWF  33
03D2:  CALL   18E
03D3:  MOVF   28,W
03D4:  MOVWF  32
03D5:  MOVLW  37
03D6:  MOVWF  33
03D7:  CALL   18E
03D8:  MOVLW  18
03D9:  MOVWF  32
03DA:  MOVF   32,W
03DB:  CALL   04F
03DC:  INCF   32,F
03DD:  MOVWF  77
03DE:  MOVF   77,W
03DF:  BTFSS  0C.4
03E0:  GOTO   3DF
03E1:  MOVWF  19
03E2:  MOVLW  20
03E3:  SUBWF  32,W
03E4:  BTFSS  03.2
03E5:  GOTO   3DA
03E6:  MOVF   2F,W
03E7:  MOVWF  36
03E8:  MOVF   2E,W
03E9:  MOVWF  35
03EA:  MOVF   2D,W
03EB:  MOVWF  34
03EC:  MOVF   2C,W
03ED:  MOVWF  33
03EE:  CLRF   3A
03EF:  CLRF   39
03F0:  MOVLW  01
03F1:  MOVWF  38
03F2:  MOVLW  06
03F3:  MOVWF  37
03F4:  GOTO   1B1
03F5:  MOVLW  23
03F6:  MOVWF  33
03F7:  MOVF   33,W
03F8:  CALL   04F
03F9:  INCF   33,F
03FA:  MOVWF  77
03FB:  MOVF   77,W
03FC:  BTFSS  0C.4
03FD:  GOTO   3FC
03FE:  MOVWF  19
03FF:  MOVLW  29
0400:  SUBWF  33,W
0401:  BTFSS  03.2
0402:  GOTO   3F7
....................         delay_ms(100);    //Retardo  
0403:  MOVLW  64
0404:  MOVWF  2C
0405:  GOTO   334
....................      }  
0406:  GOTO   37D
.................... }  
....................  
0407:  SLEEP

Configuration Fuses:
   Word  1: 3FFE   HS WDT NOPUT NOPROTECT BROWNOUT LVP NOCPD NOWRT NODEBUG
